; Function Attrs: nounwind uwtable
define internal fastcc void @ReleaseAudioDevice(ptr noundef %0) unnamed_addr #0 {
  %.not = icmp eq ptr %0, null
  br i1 %.not, label %UnrefPhysicalAudioDevice.exit, label %2

2:                                                ; preds = %1
  %3 = load ptr, ptr %0, align 8
  tail call void @SDL_UnlockMutex_REAL(ptr noundef %3) #14
  %4 = getelementptr inbounds nuw i8, ptr %0, i64 16
  %5 = tail call i32 @SDL_AddAtomicInt_REAL(ptr noundef nonnull %4, i32 noundef -1) #14
  %6 = icmp eq i32 %5, 1
  br i1 %6, label %7, label %UnrefPhysicalAudioDevice.exit

7:                                                ; preds = %2
  %8 = load ptr, ptr getelementptr inbounds nuw (i8, ptr @current_audio, i64 136), align 8
  tail call void @SDL_LockRWLockForWriting_REAL(ptr noundef %8) #14
  %9 = load ptr, ptr getelementptr inbounds nuw (i8, ptr @current_audio, i64 144), align 8
  %10 = getelementptr inbounds nuw i8, ptr %0, i64 80
  %11 = load i32, ptr %10, align 8
  %12 = zext i32 %11 to i64
  %13 = inttoptr i64 %12 to ptr
  %14 = tail call zeroext i1 @SDL_RemoveFromHashTable(ptr noundef %9, ptr noundef %13) #14
  br i1 %14, label %15, label %21

15:                                               ; preds = %7
  %16 = getelementptr inbounds nuw i8, ptr %0, i64 148
  %17 = load i8, ptr %16, align 4, !range !6, !noundef !7
  %18 = trunc nuw i8 %17 to i1
  %19 = select i1 %18, ptr getelementptr inbounds nuw (i8, ptr @current_audio, i64 196), ptr getelementptr inbounds nuw (i8, ptr @current_audio, i64 192)
  %20 = tail call i32 @SDL_AddAtomicInt_REAL(ptr noundef nonnull %19, i32 noundef -1) #14
  br label %21

21:                                               ; preds = %15, %7
  %22 = load ptr, ptr getelementptr inbounds nuw (i8, ptr @current_audio, i64 136), align 8
  tail call void @SDL_UnlockRWLock_REAL(ptr noundef %22) #14
  tail call fastcc void @DestroyPhysicalAudioDevice(ptr noundef nonnull %0)
  br label %UnrefPhysicalAudioDevice.exit

UnrefPhysicalAudioDevice.exit:                    ; preds = %21, %2, %1
  ret void
}